target datalayout = "e-m:e-p270:32:32-p271:32:32-p272:64:64-i64:64-i128:128-f80:128-n8:16:32:64-S128"
target triple = "x86_64-pc-linux-gnu"

%struct.strvec = type { ptr, i64, i64 }
%struct.strbuf = type { i64, i64, ptr }
%struct.oidset = type { %struct.kh_oid_set }
%struct.kh_oid_set = type { i32, i32, i32, i32, ptr, ptr, ptr }
%struct.rev_info = type { ptr, %struct.object_array, ptr, %struct.object_array, %struct.rev_cmdline_info, %struct.list_objects_filter_options, %struct.ref_exclusions, ptr, ptr, ptr, %struct.pathspec, i32, i32, i32, i32, i64, i32, i32, %struct.date_mode, i32, i32, i32, i32, ptr, i32, i32, ptr, ptr, i32, ptr, ptr, %struct.ident_split, ptr, i32, ptr, ptr, ptr, i32, i32, i32, ptr, %struct.grep_opt, ptr, i32, i32, i64, i64, i64, i32, i32, ptr, ptr, ptr, %struct.diff_options, %struct.diff_options, ptr, %struct.decoration, %struct.decoration, %struct.decoration, %struct.display_notes_opt, ptr, ptr, ptr, ptr, ptr, i32, ptr, i32, i32, i32, %struct.decoration, ptr, ptr, ptr, ptr, ptr, ptr, ptr, i32, ptr, i32, ptr, %struct.oidset }
%struct.object_array = type { i32, i32, ptr }
%struct.rev_cmdline_info = type { i32, i32, ptr }
%struct.list_objects_filter_options = type { %struct.strbuf, i32, i8, ptr, i64, i64, i32, i64, i64, ptr }
%struct.ref_exclusions = type { %struct.string_list, %struct.strvec, i8 }
%struct.string_list = type { ptr, i64, i64, i8, ptr }
%struct.pathspec = type { i32, i8, i32, i32, ptr }
%struct.date_mode = type { i32, i32, ptr }
%struct.ident_split = type { ptr, ptr, ptr, ptr, ptr, ptr, ptr, ptr }
%struct.grep_opt = type { ptr, ptr, ptr, ptr, ptr, ptr, i32, i32, i32, i32, i32, i32, i32, i32, i32, i32, i32, i32, i32, i32, i32, i32, i32, i32, i32, i32, i32, i32, i32, i32, i32, i32, [9 x [75 x i8]], i32, i32, i32, i32, i32, i32, i32, ptr, ptr, ptr }
%struct.diff_options = type { ptr, ptr, i32, i32, ptr, i32, ptr, i64, i64, ptr, ptr, ptr, ptr, %struct.diff_flags, i32, i32, i32, i32, i32, i32, i32, i32, i32, i32, i32, i32, i32, i32, i32, i32, i32, i32, i32, i32, i32, i32, ptr, i32, ptr, i32, i32, ptr, i64, i64, i32, i32, i32, i32, ptr, i32, i32, ptr, i32, i32, ptr, ptr, i32, [3 x i8], %struct.pathspec, ptr, ptr, ptr, ptr, ptr, ptr, ptr, ptr, i32, ptr, i32, i32, ptr, ptr, i32 }
%struct.diff_flags = type { i32, i32, i32, i32, i32, i32, i32, i32, i32, i32, i32, i32, i32, i32, i32, i32, i32, i32, i32, i32, i32, i32, i32, i32, i32, i32, i32, i32, i32, i32, i32, i32, i32, i32, i32 }
%struct.display_notes_opt = type { i32, %struct.string_list }
%struct.decoration = type { ptr, i32, i32, ptr }

@default_abbrev = external global i32, align 4

; Function Attrs: nounwind uwtable
define dso_local void @init_ref_exclusions(ptr noundef %0) #0 {
  %2 = alloca ptr, align 8
  %3 = alloca %struct.ref_exclusions, align 8
  store ptr %0, ptr %2, align 8, !tbaa !143
  call void @llvm.lifetime.start.p0(i64 72, ptr %3) #12
  call void @llvm.memcpy.p0.p0.i64(ptr align 8 %3, ptr align 8 @__const.init_ref_exclusions.blank, i64 72, i1 false)
  %4 = load ptr, ptr %2, align 8, !tbaa !143
  call void @llvm.memcpy.p0.p0.i64(ptr align 8 %4, ptr align 8 %3, i64 72, i1 false)
  call void @llvm.lifetime.end.p0(i64 72, ptr %3) #12
  ret void
}

; Function Attrs: nounwind uwtable
define dso_local void @repo_init_revisions(ptr noundef %0, ptr noundef %1, ptr noundef %2) #0 {
  %4 = alloca ptr, align 8
  %5 = alloca ptr, align 8
  %6 = alloca ptr, align 8
  %7 = alloca %struct.rev_info, align 8
  store ptr %0, ptr %4, align 8, !tbaa !43
  store ptr %1, ptr %5, align 8, !tbaa !88
  store ptr %2, ptr %6, align 8, !tbaa !39
  call void @llvm.lifetime.start.p0(i64 3008, ptr %7) #12
  call void @llvm.memset.p0.i64(ptr align 8 %7, i8 0, i64 3008, i1 false)
  %8 = getelementptr inbounds nuw %struct.rev_info, ptr %7, i32 0, i32 13
  store i32 0, ptr %8, align 8, !tbaa !211
  %9 = getelementptr inbounds nuw %struct.rev_info, ptr %7, i32 0, i32 15
  %10 = load i64, ptr %9, align 8
  %11 = and i64 %10, -5
  %12 = or i64 %11, 4
  store i64 %12, ptr %9, align 8
  %13 = getelementptr inbounds nuw %struct.rev_info, ptr %7, i32 0, i32 15
  %14 = load i64, ptr %13, align 8
  %15 = and i64 %14, -129
  %16 = or i64 %15, 128
  store i64 %16, ptr %13, align 8
  %17 = getelementptr inbounds nuw %struct.rev_info, ptr %7, i32 0, i32 19
  store i32 -1, ptr %17, align 8, !tbaa !212
  %18 = getelementptr inbounds nuw %struct.rev_info, ptr %7, i32 0, i32 20
  store i32 8, ptr %18, align 4, !tbaa !213
  %19 = getelementptr inbounds nuw %struct.rev_info, ptr %7, i32 0, i32 21
  %20 = load i32, ptr @default_abbrev, align 4, !tbaa !9
  store i32 %20, ptr %19, align 8, !tbaa !214
  %21 = getelementptr inbounds nuw %struct.rev_info, ptr %7, i32 0, i32 22
  store i32 1, ptr %21, align 4, !tbaa !215
  %22 = getelementptr inbounds nuw %struct.rev_info, ptr %7, i32 0, i32 43
  store i32 -1, ptr %22, align 8, !tbaa !216
  %23 = getelementptr inbounds nuw %struct.rev_info, ptr %7, i32 0, i32 44
  store i32 -1, ptr %23, align 4, !tbaa !217
  %24 = getelementptr inbounds nuw %struct.rev_info, ptr %7, i32 0, i32 45
  store i64 -1, ptr %24, align 8, !tbaa !218
  %25 = getelementptr inbounds nuw %struct.rev_info, ptr %7, i32 0, i32 46
  store i64 -1, ptr %25, align 8, !tbaa !219
  %26 = getelementptr inbounds nuw %struct.rev_info, ptr %7, i32 0, i32 47
  store i64 -1, ptr %26, align 8, !tbaa !220
  %27 = getelementptr inbounds nuw %struct.rev_info, ptr %7, i32 0, i32 49
  store i32 -1, ptr %27, align 4, !tbaa !221
  %28 = getelementptr inbounds nuw %struct.rev_info, ptr %7, i32 0, i32 54
  %29 = getelementptr inbounds nuw %struct.diff_options, ptr %28, i32 0, i32 13
  %30 = getelementptr inbounds nuw %struct.diff_flags, ptr %29, i32 0, i32 0
  store i32 1, ptr %30, align 8, !tbaa !222
  %31 = getelementptr inbounds nuw %struct.diff_flags, ptr %29, i32 0, i32 10
  store i32 1, ptr %31, align 8, !tbaa !223
  %32 = load ptr, ptr %5, align 8, !tbaa !88
  call void @llvm.memcpy.p0.p0.i64(ptr align 8 %32, ptr align 8 %7, i64 3008, i1 false)
  %33 = load ptr, ptr %4, align 8, !tbaa !43
  %34 = load ptr, ptr %5, align 8, !tbaa !88
  %35 = getelementptr inbounds nuw %struct.rev_info, ptr %34, i32 0, i32 2
  store ptr %33, ptr %35, align 8, !tbaa !105
  %36 = load ptr, ptr %4, align 8, !tbaa !43
  %37 = load ptr, ptr %5, align 8, !tbaa !88
  %38 = getelementptr inbounds nuw %struct.rev_info, ptr %37, i32 0, i32 54
  %39 = getelementptr inbounds nuw %struct.diff_options, ptr %38, i32 0, i32 71
  store ptr %36, ptr %39, align 8, !tbaa !224
  %40 = load ptr, ptr %5, align 8, !tbaa !88
  %41 = getelementptr inbounds nuw %struct.rev_info, ptr %40, i32 0, i32 54
  %42 = getelementptr inbounds nuw %struct.diff_options, ptr %41, i32 0, i32 61
  store ptr @file_add_remove, ptr %42, align 8, !tbaa !225
  %43 = load ptr, ptr %5, align 8, !tbaa !88
  %44 = getelementptr inbounds nuw %struct.rev_info, ptr %43, i32 0, i32 54
  %45 = getelementptr inbounds nuw %struct.diff_options, ptr %44, i32 0, i32 60
  store ptr @file_change, ptr %45, align 8, !tbaa !226
  %46 = load ptr, ptr %5, align 8, !tbaa !88
  %47 = load ptr, ptr %5, align 8, !tbaa !88
  %48 = getelementptr inbounds nuw %struct.rev_info, ptr %47, i32 0, i32 54
  %49 = getelementptr inbounds nuw %struct.diff_options, ptr %48, i32 0, i32 62
  store ptr %46, ptr %49, align 8, !tbaa !227
  %50 = load ptr, ptr %6, align 8, !tbaa !39
  %51 = load ptr, ptr %5, align 8, !tbaa !88
  %52 = getelementptr inbounds nuw %struct.rev_info, ptr %51, i32 0, i32 7
  store ptr %50, ptr %52, align 8, !tbaa !228
  %53 = load ptr, ptr %5, align 8, !tbaa !88
  %54 = getelementptr inbounds nuw %struct.rev_info, ptr %53, i32 0, i32 41
  %55 = load ptr, ptr %5, align 8, !tbaa !88
  %56 = getelementptr inbounds nuw %struct.rev_info, ptr %55, i32 0, i32 2
  %57 = load ptr, ptr %56, align 8, !tbaa !105
  call void @grep_init(ptr noundef %54, ptr noundef %57)
  %58 = load ptr, ptr %5, align 8, !tbaa !88
  %59 = getelementptr inbounds nuw %struct.rev_info, ptr %58, i32 0, i32 41
  %60 = getelementptr inbounds nuw %struct.grep_opt, ptr %59, i32 0, i32 10
  store i32 1, ptr %60, align 8, !tbaa !229
  %61 = load ptr, ptr %5, align 8, !tbaa !88
  %62 = getelementptr inbounds nuw %struct.rev_info, ptr %61, i32 0, i32 2
  %63 = load ptr, ptr %62, align 8, !tbaa !105
  %64 = load ptr, ptr %5, align 8, !tbaa !88
  %65 = getelementptr inbounds nuw %struct.rev_info, ptr %64, i32 0, i32 53
  call void @repo_diff_setup(ptr noundef %63, ptr noundef %65)
  %66 = load ptr, ptr %6, align 8, !tbaa !39
  %67 = icmp ne ptr %66, null
  br i1 %67, label %68, label %85

68:                                               ; preds = %3
  %69 = load ptr, ptr %5, align 8, !tbaa !88
  %70 = getelementptr inbounds nuw %struct.rev_info, ptr %69, i32 0, i32 53
  %71 = getelementptr inbounds nuw %struct.diff_options, ptr %70, i32 0, i32 36
  %72 = load ptr, ptr %71, align 8, !tbaa !230
  %73 = icmp ne ptr %72, null
  br i1 %73, label %85, label %74

74:                                               ; preds = %68
  %75 = load ptr, ptr %6, align 8, !tbaa !39
  %76 = load ptr, ptr %5, align 8, !tbaa !88
  %77 = getelementptr inbounds nuw %struct.rev_info, ptr %76, i32 0, i32 53
  %78 = getelementptr inbounds nuw %struct.diff_options, ptr %77, i32 0, i32 36
  store ptr %75, ptr %78, align 8, !tbaa !230
  %79 = load ptr, ptr %6, align 8, !tbaa !39
  %80 = call i64 @strlen(ptr noundef %79) #14
  %81 = trunc i64 %80 to i32
  %82 = load ptr, ptr %5, align 8, !tbaa !88
  %83 = getelementptr inbounds nuw %struct.rev_info, ptr %82, i32 0, i32 53
  %84 = getelementptr inbounds nuw %struct.diff_options, ptr %83, i32 0, i32 37
  store i32 %81, ptr %84, align 8, !tbaa !231
  br label %85

85:                                               ; preds = %74, %68, %3
  %86 = load ptr, ptr %5, align 8, !tbaa !88
  %87 = getelementptr inbounds nuw %struct.rev_info, ptr %86, i32 0, i32 59
  call void @init_display_notes(ptr noundef %87)
  %88 = load ptr, ptr %5, align 8, !tbaa !88
  %89 = getelementptr inbounds nuw %struct.rev_info, ptr %88, i32 0, i32 5
  call void @list_objects_filter_init(ptr noundef %89)
  %90 = load ptr, ptr %5, align 8, !tbaa !88
  %91 = getelementptr inbounds nuw %struct.rev_info, ptr %90, i32 0, i32 6
  call void @init_ref_exclusions(ptr noundef %91)
  %92 = load ptr, ptr %5, align 8, !tbaa !88
  %93 = getelementptr inbounds nuw %struct.rev_info, ptr %92, i32 0, i32 82
  call void @oidset_init(ptr noundef %93, i64 noundef 0)
  call void @llvm.lifetime.end.p0(i64 3008, ptr %7) #12
  ret void
}