; Function Attrs: nounwind uwtable
define dso_local void @repo_init_revisions(ptr noundef %0, ptr noundef initializes((0, 3008)) %1, ptr noundef %2) local_unnamed_addr #2 {
  %4 = load i32, ptr @default_abbrev, align 4, !tbaa !42
  %.sroa.51.0..sroa_idx = getelementptr inbounds nuw i8, ptr %1, i64 288
  tail call void @llvm.memset.p0.i64(ptr noundef nonnull align 8 dereferenceable(288) %1, i8 0, i64 288, i1 false)
  store i64 132, ptr %.sroa.51.0..sroa_idx, align 8
  %.sroa.9.0..sroa_idx = getelementptr inbounds nuw i8, ptr %1, i64 296
  tail call void @llvm.memset.p0.i64(ptr noundef nonnull align 8 dereferenceable(24) %.sroa.9.0..sroa_idx, i8 0, i64 24, i1 false)
  %.sroa.93.0..sroa_idx = getelementptr inbounds nuw i8, ptr %1, i64 320
  store i32 -1, ptr %.sroa.93.0..sroa_idx, align 8
  %.sroa.10.0..sroa_idx = getelementptr inbounds nuw i8, ptr %1, i64 324
  store i32 8, ptr %.sroa.10.0..sroa_idx, align 4
  %.sroa.11.0..sroa_idx = getelementptr inbounds nuw i8, ptr %1, i64 328
  store i32 %4, ptr %.sroa.11.0..sroa_idx, align 8
  %.sroa.12.0..sroa_idx = getelementptr inbounds nuw i8, ptr %1, i64 332
  store i32 1, ptr %.sroa.12.0..sroa_idx, align 4
  %.sroa.13.0..sroa_idx = getelementptr inbounds nuw i8, ptr %1, i64 336
  tail call void @llvm.memset.p0.i64(ptr noundef nonnull align 8 dereferenceable(1072) %.sroa.13.0..sroa_idx, i8 0, i64 1072, i1 false)
  %.sroa.134.0..sroa_idx = getelementptr inbounds nuw i8, ptr %1, i64 1408
  %.sroa.18.0..sroa_idx = getelementptr inbounds nuw i8, ptr %1, i64 1440
  tail call void @llvm.memset.p0.i64(ptr noundef nonnull align 8 dereferenceable(32) %.sroa.134.0..sroa_idx, i8 -1, i64 32, i1 false)
  store i32 0, ptr %.sroa.18.0..sroa_idx, align 8
  %.sroa.185.0..sroa_idx = getelementptr inbounds nuw i8, ptr %1, i64 1444
  store i32 -1, ptr %.sroa.185.0..sroa_idx, align 4
  %.sroa.19.0..sroa_idx = getelementptr inbounds nuw i8, ptr %1, i64 1448
  tail call void @llvm.memset.p0.i64(ptr noundef nonnull align 8 dereferenceable(712) %.sroa.19.0..sroa_idx, i8 0, i64 712, i1 false)
  %.sroa.196.0..sroa_idx = getelementptr inbounds nuw i8, ptr %1, i64 2160
  store i32 1, ptr %.sroa.196.0..sroa_idx, align 8
  %.sroa.20.0..sroa_idx = getelementptr inbounds nuw i8, ptr %1, i64 2164
  tail call void @llvm.memset.p0.i64(ptr noundef nonnull align 4 dereferenceable(36) %.sroa.20.0..sroa_idx, i8 0, i64 36, i1 false)
  %.sroa.207.0..sroa_idx = getelementptr inbounds nuw i8, ptr %1, i64 2200
  store i32 1, ptr %.sroa.207.0..sroa_idx, align 8
  %.sroa.21.0..sroa_idx = getelementptr inbounds nuw i8, ptr %1, i64 2204
  tail call void @llvm.memset.p0.i64(ptr noundef nonnull align 4 dereferenceable(804) %.sroa.21.0..sroa_idx, i8 0, i64 804, i1 false)
  %5 = getelementptr inbounds nuw i8, ptr %1, i64 24
  store ptr %0, ptr %5, align 8, !tbaa !73
  %6 = getelementptr inbounds nuw i8, ptr %1, i64 2632
  store ptr %0, ptr %6, align 8, !tbaa !177
  %7 = getelementptr inbounds nuw i8, ptr %1, i64 2560
  store ptr @file_add_remove, ptr %7, align 8, !tbaa !178
  %8 = getelementptr inbounds nuw i8, ptr %1, i64 2552
  store ptr @file_change, ptr %8, align 8, !tbaa !179
  %9 = getelementptr inbounds nuw i8, ptr %1, i64 2568
  store ptr %1, ptr %9, align 8, !tbaa !180
  %10 = getelementptr inbounds nuw i8, ptr %1, i64 224
  store ptr %2, ptr %10, align 8, !tbaa !181
  %11 = getelementptr inbounds nuw i8, ptr %1, i64 520
  tail call void @grep_init(ptr noundef nonnull %11, ptr noundef %0) #26
  %12 = getelementptr inbounds nuw i8, ptr %1, i64 584
  store i32 1, ptr %12, align 8, !tbaa !182
  %13 = load ptr, ptr %5, align 8, !tbaa !73
  %14 = getelementptr inbounds nuw i8, ptr %1, i64 1472
  tail call void @repo_diff_setup(ptr noundef %13, ptr noundef nonnull %14) #26
  %.not = icmp eq ptr %2, null
  br i1 %.not, label %22, label %15

15:                                               ; preds = %3
  %16 = getelementptr inbounds nuw i8, ptr %1, i64 1800
  %17 = load ptr, ptr %16, align 8, !tbaa !183
  %.not35 = icmp eq ptr %17, null
  br i1 %.not35, label %18, label %22

18:                                               ; preds = %15
  store ptr %2, ptr %16, align 8, !tbaa !183
  %19 = tail call i64 @strlen(ptr noundef nonnull dereferenceable(1) %2) #27
  %20 = trunc i64 %19 to i32
  %21 = getelementptr inbounds nuw i8, ptr %1, i64 1808
  store i32 %20, ptr %21, align 8, !tbaa !184
  br label %22

22:                                               ; preds = %18, %15, %3
  %23 = getelementptr inbounds nuw i8, ptr %1, i64 2736
  tail call void @init_display_notes(ptr noundef nonnull %23) #26
  %24 = getelementptr inbounds nuw i8, ptr %1, i64 64
  tail call void @list_objects_filter_init(ptr noundef nonnull %24) #26
  %25 = getelementptr inbounds nuw i8, ptr %1, i64 152
  tail call void @llvm.memcpy.p0.p0.i64(ptr noundef nonnull align 8 dereferenceable(72) %25, ptr noundef nonnull align 8 dereferenceable(72) @__const.init_ref_exclusions.blank, i64 72, i1 false)
  %26 = getelementptr inbounds nuw i8, ptr %1, i64 2968
  tail call void @oidset_init(ptr noundef nonnull %26, i64 noundef 0) #26
  ret void
}